target datalayout = "e-m:e-p270:32:32-p271:32:32-p272:64:64-i64:64-i128:128-f80:128-n8:16:32:64-S128"
target triple = "x86_64-unknown-linux-gnu"

%"class.icu_75::Locale" = type <{ %"class.icu_75::UObject", [12 x i8], [6 x i8], [4 x i8], [2 x i8], i32, [4 x i8], ptr, [157 x i8], [3 x i8], ptr, i8, [7 x i8] }>
%"class.icu_75::UObject" = type { ptr }

; Function Attrs: mustprogress nounwind uwtable
define linkonce_odr noundef ptr @_ZNK6icu_756Locale7getNameEv(ptr noundef nonnull align 8 dereferenceable(217) %this) #0 comdat align 2 {
entry:
  %this.addr = alloca ptr, align 8
  store ptr %this, ptr %this.addr, align 8
  %this1 = load ptr, ptr %this.addr, align 8
  %fullName = getelementptr inbounds %"class.icu_75::Locale", ptr %this1, i32 0, i32 7
  %0 = load ptr, ptr %fullName, align 8
  ret ptr %0
}

; Function Attrs: mustprogress nounwind uwtable
define internal noundef signext i8 @_ZL9U_FAILURE10UErrorCode(i32 noundef %code) #0 {
entry:
  %code.addr = alloca i32, align 4
  store i32 %code, ptr %code.addr, align 4
  %0 = load i32, ptr %code.addr, align 4
  %cmp = icmp sgt i32 %0, 0
  %conv = zext i1 %cmp to i8
  ret i8 %conv
}

; Function Attrs: mustprogress uwtable
define void @_ZN6icu_756Locale10setDefaultERKS0_R10UErrorCode(ptr noundef nonnull align 8 dereferenceable(217) %newLocale, ptr noundef nonnull align 4 dereferenceable(4) %status) #1 align 2 {
entry:
  %newLocale.addr = alloca ptr, align 8
  %status.addr = alloca ptr, align 8
  %localeID = alloca ptr, align 8
  store ptr %newLocale, ptr %newLocale.addr, align 8
  store ptr %status, ptr %status.addr, align 8
  %0 = load ptr, ptr %status.addr, align 8
  %1 = load i32, ptr %0, align 4
  %call = call noundef signext i8 @_ZL9U_FAILURE10UErrorCode(i32 noundef %1)
  %tobool = icmp ne i8 %call, 0
  br i1 %tobool, label %if.then, label %if.end

if.then:                                          ; preds = %entry
  br label %return

if.end:                                           ; preds = %entry
  %2 = load ptr, ptr %newLocale.addr, align 8
  %call1 = call noundef ptr @_ZNK6icu_756Locale7getNameEv(ptr noundef nonnull align 8 dereferenceable(217) %2)
  store ptr %call1, ptr %localeID, align 8
  %3 = load ptr, ptr %localeID, align 8
  %4 = load ptr, ptr %status.addr, align 8
  %call2 = call noundef ptr @_ZN6icu_7527locale_set_default_internalEPKcR10UErrorCode(ptr noundef %3, ptr noundef nonnull align 4 dereferenceable(4) %4)
  br label %return

return:                                           ; preds = %if.end, %if.then
  ret void
}