; Function Attrs: mustprogress uwtable
define void @_ZN6icu_756Locale10setDefaultERKS0_R10UErrorCode(ptr nocapture noundef nonnull readonly align 8 dereferenceable(217) %newLocale, ptr noundef nonnull align 4 dereferenceable(4) %status) local_unnamed_addr #1 align 2 {
entry:
  %0 = load i32, ptr %status, align 4
  %cmp.i = icmp slt i32 %0, 1
  br i1 %cmp.i, label %if.end, label %return

if.end:                                           ; preds = %entry
  %fullName.i = getelementptr inbounds i8, ptr %newLocale, i64 40
  %1 = load ptr, ptr %fullName.i, align 8
  %call2 = tail call noundef ptr @_ZN6icu_7527locale_set_default_internalEPKcR10UErrorCode(ptr noundef %1, ptr noundef nonnull align 4 dereferenceable(4) %status)
  br label %return

return:                                           ; preds = %entry, %if.end
  ret void
}